target datalayout = "e-m:e-p270:32:32-p271:32:32-p272:64:64-i64:64-i128:128-f80:128-n8:16:32:64-S128"
target triple = "x86_64-pc-linux-gnu"

%struct.HydrogenBondData = type { i8, i8, i32, i32, %"class.std::vector", %"class.std::vector", %"class.std::vector.3", %"class.std::vector.8", %"class.std::vector.13", %"class.std::vector.18", %struct.t_donors, %struct.t_acceptors, i32, i32, ptr }
%"class.std::vector" = type { %"struct.std::_Vector_base" }
%"struct.std::_Vector_base" = type { %"struct.std::_Vector_base<int, std::allocator<int>>::_Vector_impl" }
%"struct.std::_Vector_base<int, std::allocator<int>>::_Vector_impl" = type { %"struct.std::_Vector_base<int, std::allocator<int>>::_Vector_impl_data" }
%"struct.std::_Vector_base<int, std::allocator<int>>::_Vector_impl_data" = type { ptr, ptr, ptr }
%"class.std::vector.3" = type { %"struct.std::_Vector_base.4" }
%"struct.std::_Vector_base.4" = type { %"struct.std::_Vector_base<std::array<int, 4>, std::allocator<std::array<int, 4>>>::_Vector_impl" }
%"struct.std::_Vector_base<std::array<int, 4>, std::allocator<std::array<int, 4>>>::_Vector_impl" = type { %"struct.std::_Vector_base<std::array<int, 4>, std::allocator<std::array<int, 4>>>::_Vector_impl_data" }
%"struct.std::_Vector_base<std::array<int, 4>, std::allocator<std::array<int, 4>>>::_Vector_impl_data" = type { ptr, ptr, ptr }
%"class.std::vector.8" = type { %"struct.std::_Vector_base.9" }
%"struct.std::_Vector_base.9" = type { %"struct.std::_Vector_base<float, std::allocator<float>>::_Vector_impl" }
%"struct.std::_Vector_base<float, std::allocator<float>>::_Vector_impl" = type { %"struct.std::_Vector_base<float, std::allocator<float>>::_Vector_impl_data" }
%"struct.std::_Vector_base<float, std::allocator<float>>::_Vector_impl_data" = type { ptr, ptr, ptr }
%"class.std::vector.13" = type { %"struct.std::_Vector_base.14" }
%"struct.std::_Vector_base.14" = type { %"struct.std::_Vector_base<gmx::EnumerationArray<HydrogenExchangeGroup, int>, std::allocator<gmx::EnumerationArray<HydrogenExchangeGroup, int>>>::_Vector_impl" }
%"struct.std::_Vector_base<gmx::EnumerationArray<HydrogenExchangeGroup, int>, std::allocator<gmx::EnumerationArray<HydrogenExchangeGroup, int>>>::_Vector_impl" = type { %"struct.std::_Vector_base<gmx::EnumerationArray<HydrogenExchangeGroup, int>, std::allocator<gmx::EnumerationArray<HydrogenExchangeGroup, int>>>::_Vector_impl_data" }
%"struct.std::_Vector_base<gmx::EnumerationArray<HydrogenExchangeGroup, int>, std::allocator<gmx::EnumerationArray<HydrogenExchangeGroup, int>>>::_Vector_impl_data" = type { ptr, ptr, ptr }
%"class.std::vector.18" = type { %"struct.std::_Vector_base.19" }
%"struct.std::_Vector_base.19" = type { %"struct.std::_Vector_base<std::array<int, 7>, std::allocator<std::array<int, 7>>>::_Vector_impl" }
%"struct.std::_Vector_base<std::array<int, 7>, std::allocator<std::array<int, 7>>>::_Vector_impl" = type { %"struct.std::_Vector_base<std::array<int, 7>, std::allocator<std::array<int, 7>>>::_Vector_impl_data" }
%"struct.std::_Vector_base<std::array<int, 7>, std::allocator<std::array<int, 7>>>::_Vector_impl_data" = type { ptr, ptr, ptr }
%struct.t_donors = type { %"class.std::vector", %"class.std::vector", %"class.std::vector", %"class.std::vector", %"class.std::vector.3", %"class.std::vector.3" }
%struct.t_acceptors = type { %"class.std::vector", %"class.std::vector", %"class.std::vector" }

@_ZN16HydrogenBondDataC1Ebbb = unnamed_addr alias void (ptr, i1, i1, i1), ptr @_ZN16HydrogenBondDataC2Ebbb

; Function Attrs: inlinehint mustprogress uwtable
define linkonce_odr noundef nonnull align 8 dereferenceable(72) ptr @_ZN11t_acceptorsaSERKS_(ptr noundef nonnull align 8 dereferenceable(72) %0, ptr noundef nonnull align 8 dereferenceable(72) %1) #8 comdat align 2 {
  %3 = alloca ptr, align 8
  %4 = alloca ptr, align 8
  store ptr %0, ptr %3, align 8, !tbaa !89
  store ptr %1, ptr %4, align 8, !tbaa !89
  %5 = load ptr, ptr %3, align 8
  %6 = getelementptr inbounds nuw %struct.t_acceptors, ptr %5, i32 0, i32 0
  %7 = load ptr, ptr %4, align 8, !tbaa !89
  %8 = getelementptr inbounds nuw %struct.t_acceptors, ptr %7, i32 0, i32 0
  %9 = call noundef nonnull align 8 dereferenceable(24) ptr @_ZNSt6vectorIiSaIiEEaSERKS1_(ptr noundef nonnull align 8 dereferenceable(24) %6, ptr noundef nonnull align 8 dereferenceable(24) %8)
  %10 = getelementptr inbounds nuw %struct.t_acceptors, ptr %5, i32 0, i32 1
  %11 = load ptr, ptr %4, align 8, !tbaa !89
  %12 = getelementptr inbounds nuw %struct.t_acceptors, ptr %11, i32 0, i32 1
  %13 = call noundef nonnull align 8 dereferenceable(24) ptr @_ZNSt6vectorIiSaIiEEaSERKS1_(ptr noundef nonnull align 8 dereferenceable(24) %10, ptr noundef nonnull align 8 dereferenceable(24) %12)
  %14 = getelementptr inbounds nuw %struct.t_acceptors, ptr %5, i32 0, i32 2
  %15 = load ptr, ptr %4, align 8, !tbaa !89
  %16 = getelementptr inbounds nuw %struct.t_acceptors, ptr %15, i32 0, i32 2
  %17 = call noundef nonnull align 8 dereferenceable(24) ptr @_ZNSt6vectorIiSaIiEEaSERKS1_(ptr noundef nonnull align 8 dereferenceable(24) %14, ptr noundef nonnull align 8 dereferenceable(24) %16)
  ret ptr %5
}

; Function Attrs: inlinehint mustprogress uwtable
define linkonce_odr noundef nonnull align 8 dereferenceable(144) ptr @_ZN8t_donorsaSERKS_(ptr noundef nonnull align 8 dereferenceable(144) %0, ptr noundef nonnull align 8 dereferenceable(144) %1) #8 comdat align 2 {
  %3 = alloca ptr, align 8
  %4 = alloca ptr, align 8
  store ptr %0, ptr %3, align 8, !tbaa !87
  store ptr %1, ptr %4, align 8, !tbaa !87
  %5 = load ptr, ptr %3, align 8
  %6 = getelementptr inbounds nuw %struct.t_donors, ptr %5, i32 0, i32 0
  %7 = load ptr, ptr %4, align 8, !tbaa !87
  %8 = getelementptr inbounds nuw %struct.t_donors, ptr %7, i32 0, i32 0
  %9 = call noundef nonnull align 8 dereferenceable(24) ptr @_ZNSt6vectorIiSaIiEEaSERKS1_(ptr noundef nonnull align 8 dereferenceable(24) %6, ptr noundef nonnull align 8 dereferenceable(24) %8)
  %10 = getelementptr inbounds nuw %struct.t_donors, ptr %5, i32 0, i32 1
  %11 = load ptr, ptr %4, align 8, !tbaa !87
  %12 = getelementptr inbounds nuw %struct.t_donors, ptr %11, i32 0, i32 1
  %13 = call noundef nonnull align 8 dereferenceable(24) ptr @_ZNSt6vectorIiSaIiEEaSERKS1_(ptr noundef nonnull align 8 dereferenceable(24) %10, ptr noundef nonnull align 8 dereferenceable(24) %12)
  %14 = getelementptr inbounds nuw %struct.t_donors, ptr %5, i32 0, i32 2
  %15 = load ptr, ptr %4, align 8, !tbaa !87
  %16 = getelementptr inbounds nuw %struct.t_donors, ptr %15, i32 0, i32 2
  %17 = call noundef nonnull align 8 dereferenceable(24) ptr @_ZNSt6vectorIiSaIiEEaSERKS1_(ptr noundef nonnull align 8 dereferenceable(24) %14, ptr noundef nonnull align 8 dereferenceable(24) %16)
  %18 = getelementptr inbounds nuw %struct.t_donors, ptr %5, i32 0, i32 3
  %19 = load ptr, ptr %4, align 8, !tbaa !87
  %20 = getelementptr inbounds nuw %struct.t_donors, ptr %19, i32 0, i32 3
  %21 = call noundef nonnull align 8 dereferenceable(24) ptr @_ZNSt6vectorIiSaIiEEaSERKS1_(ptr noundef nonnull align 8 dereferenceable(24) %18, ptr noundef nonnull align 8 dereferenceable(24) %20)
  %22 = getelementptr inbounds nuw %struct.t_donors, ptr %5, i32 0, i32 4
  %23 = load ptr, ptr %4, align 8, !tbaa !87
  %24 = getelementptr inbounds nuw %struct.t_donors, ptr %23, i32 0, i32 4
  %25 = call noundef nonnull align 8 dereferenceable(24) ptr @_ZNSt6vectorISt5arrayIiLm4EESaIS1_EEaSERKS3_(ptr noundef nonnull align 8 dereferenceable(24) %22, ptr noundef nonnull align 8 dereferenceable(24) %24)
  %26 = getelementptr inbounds nuw %struct.t_donors, ptr %5, i32 0, i32 5
  %27 = load ptr, ptr %4, align 8, !tbaa !87
  %28 = getelementptr inbounds nuw %struct.t_donors, ptr %27, i32 0, i32 5
  %29 = call noundef nonnull align 8 dereferenceable(24) ptr @_ZNSt6vectorISt5arrayIiLm4EESaIS1_EEaSERKS3_(ptr noundef nonnull align 8 dereferenceable(24) %26, ptr noundef nonnull align 8 dereferenceable(24) %28)
  ret ptr %5
}

; Function Attrs: mustprogress uwtable
define void @_ZN16HydrogenBondData13perThreadCopyERKS_(ptr dead_on_unwind noalias writable sret(%struct.HydrogenBondData) align 8 %0, ptr noundef nonnull align 8 dereferenceable(392) %1) #3 align 2 personality ptr @__gxx_personality_v0 {
  %3 = alloca ptr, align 8
  %4 = alloca ptr, align 8
  %5 = alloca i1, align 1
  %6 = alloca ptr, align 8
  %7 = alloca i32, align 4
  store ptr %0, ptr %3, align 8
  store ptr %1, ptr %4, align 8, !tbaa !34
  store i1 false, ptr %5, align 1
  %8 = load ptr, ptr %4, align 8, !tbaa !34
  %9 = getelementptr inbounds nuw %struct.HydrogenBondData, ptr %8, i32 0, i32 0
  %10 = load i8, ptr %9, align 8, !tbaa !40, !range !38, !noundef !39
  %11 = trunc i8 %10 to i1
  %12 = load ptr, ptr %4, align 8, !tbaa !34
  %13 = getelementptr inbounds nuw %struct.HydrogenBondData, ptr %12, i32 0, i32 1
  %14 = load i8, ptr %13, align 1, !tbaa !71, !range !38, !noundef !39
  %15 = trunc i8 %14 to i1
  call void @_ZN16HydrogenBondDataC1Ebbb(ptr noundef nonnull align 8 dereferenceable(392) %0, i1 noundef zeroext %11, i1 noundef zeroext %15, i1 noundef zeroext false)
  %16 = load ptr, ptr %4, align 8, !tbaa !34
  %17 = getelementptr inbounds nuw %struct.HydrogenBondData, ptr %16, i32 0, i32 2
  %18 = load i32, ptr %17, align 4, !tbaa !72
  %19 = getelementptr inbounds nuw %struct.HydrogenBondData, ptr %0, i32 0, i32 2
  store i32 %18, ptr %19, align 4, !tbaa !72
  %20 = load ptr, ptr %4, align 8, !tbaa !34
  %21 = getelementptr inbounds nuw %struct.HydrogenBondData, ptr %20, i32 0, i32 3
  %22 = load i32, ptr %21, align 8, !tbaa !73
  %23 = getelementptr inbounds nuw %struct.HydrogenBondData, ptr %0, i32 0, i32 3
  store i32 %22, ptr %23, align 8, !tbaa !73
  %24 = load ptr, ptr %4, align 8, !tbaa !34
  %25 = getelementptr inbounds nuw %struct.HydrogenBondData, ptr %24, i32 0, i32 7
  %26 = getelementptr inbounds nuw %struct.HydrogenBondData, ptr %0, i32 0, i32 7
  %27 = invoke noundef nonnull align 8 dereferenceable(24) ptr @_ZNSt6vectorIfSaIfEEaSERKS1_(ptr noundef nonnull align 8 dereferenceable(24) %26, ptr noundef nonnull align 8 dereferenceable(24) %25)
          to label %28 unwind label %44

28:                                               ; preds = %2
  %29 = load ptr, ptr %4, align 8, !tbaa !34
  %30 = getelementptr inbounds nuw %struct.HydrogenBondData, ptr %29, i32 0, i32 10
  %31 = getelementptr inbounds nuw %struct.HydrogenBondData, ptr %0, i32 0, i32 10
  %32 = invoke noundef nonnull align 8 dereferenceable(144) ptr @_ZN8t_donorsaSERKS_(ptr noundef nonnull align 8 dereferenceable(144) %31, ptr noundef nonnull align 8 dereferenceable(144) %30)
          to label %33 unwind label %44

33:                                               ; preds = %28
  %34 = load ptr, ptr %4, align 8, !tbaa !34
  %35 = getelementptr inbounds nuw %struct.HydrogenBondData, ptr %34, i32 0, i32 11
  %36 = getelementptr inbounds nuw %struct.HydrogenBondData, ptr %0, i32 0, i32 11
  %37 = invoke noundef nonnull align 8 dereferenceable(72) ptr @_ZN11t_acceptorsaSERKS_(ptr noundef nonnull align 8 dereferenceable(72) %36, ptr noundef nonnull align 8 dereferenceable(72) %35)
          to label %38 unwind label %44

38:                                               ; preds = %33
  %39 = load ptr, ptr %4, align 8, !tbaa !34
  %40 = getelementptr inbounds nuw %struct.HydrogenBondData, ptr %39, i32 0, i32 14
  %41 = load ptr, ptr %40, align 8, !tbaa !76
  %42 = getelementptr inbounds nuw %struct.HydrogenBondData, ptr %0, i32 0, i32 14
  store ptr %41, ptr %42, align 8, !tbaa !76
  store i1 true, ptr %5, align 1
  %43 = load i1, ptr %5, align 1
  br i1 %43, label %49, label %48

44:                                               ; preds = %33, %28, %2
  %45 = landingpad { ptr, i32 }
          cleanup
  %46 = extractvalue { ptr, i32 } %45, 0
  store ptr %46, ptr %6, align 8
  %47 = extractvalue { ptr, i32 } %45, 1
  store i32 %47, ptr %7, align 4
  call void @_ZN16HydrogenBondDataD2Ev(ptr noundef nonnull align 8 dereferenceable(392) %0) #5
  br label %50

48:                                               ; preds = %38
  call void @_ZN16HydrogenBondDataD2Ev(ptr noundef nonnull align 8 dereferenceable(392) %0) #5
  br label %49

49:                                               ; preds = %48, %38
  ret void

50:                                               ; preds = %44
  %51 = load ptr, ptr %6, align 8
  %52 = load i32, ptr %7, align 4
  %53 = insertvalue { ptr, i32 } poison, ptr %51, 0
  %54 = insertvalue { ptr, i32 } %53, i32 %52, 1
  resume { ptr, i32 } %54
}