; Function Attrs: mustprogress uwtable
define void @_ZN16HydrogenBondData13perThreadCopyERKS_(ptr dead_on_unwind noalias writable sret(%struct.HydrogenBondData) align 8 %0, ptr noundef nonnull align 8 dereferenceable(392) %1) local_unnamed_addr #1 align 2 personality ptr @__gxx_personality_v0 {
  %3 = load i8, ptr %1, align 8, !tbaa !16, !range !52, !noundef !53
  %4 = trunc nuw i8 %3 to i1
  %5 = getelementptr inbounds nuw i8, ptr %1, i64 1
  %6 = load i8, ptr %5, align 1, !tbaa !49, !range !52, !noundef !53
  %7 = trunc nuw i8 %6 to i1
  tail call void @_ZN16HydrogenBondDataC1Ebbb(ptr noundef nonnull align 8 dereferenceable(392) %0, i1 noundef zeroext %4, i1 noundef zeroext %7, i1 noundef zeroext false)
  %8 = getelementptr inbounds nuw i8, ptr %1, i64 4
  %9 = load i32, ptr %8, align 4, !tbaa !50
  %10 = getelementptr inbounds nuw i8, ptr %0, i64 4
  store i32 %9, ptr %10, align 4, !tbaa !50
  %11 = getelementptr inbounds nuw i8, ptr %1, i64 8
  %12 = load i32, ptr %11, align 8, !tbaa !51
  %13 = getelementptr inbounds nuw i8, ptr %0, i64 8
  store i32 %12, ptr %13, align 8, !tbaa !51
  %14 = getelementptr inbounds nuw i8, ptr %1, i64 88
  %15 = getelementptr inbounds nuw i8, ptr %0, i64 88
  %16 = invoke noundef nonnull align 8 dereferenceable(24) ptr @_ZNSt6vectorIfSaIfEEaSERKS1_(ptr noundef nonnull align 8 dereferenceable(24) %15, ptr noundef nonnull align 8 dereferenceable(24) %14)
          to label %17 unwind label %48

17:                                               ; preds = %2
  %18 = getelementptr inbounds nuw i8, ptr %1, i64 160
  %19 = getelementptr inbounds nuw i8, ptr %0, i64 160
  %20 = invoke noundef nonnull align 8 dereferenceable(24) ptr @_ZNSt6vectorIiSaIiEEaSERKS1_(ptr noundef nonnull align 8 dereferenceable(144) %19, ptr noundef nonnull align 8 dereferenceable(144) %18)
          to label %.noexc unwind label %48

.noexc:                                           ; preds = %17
  %21 = getelementptr inbounds nuw i8, ptr %0, i64 184
  %22 = getelementptr inbounds nuw i8, ptr %1, i64 184
  %23 = invoke noundef nonnull align 8 dereferenceable(24) ptr @_ZNSt6vectorIiSaIiEEaSERKS1_(ptr noundef nonnull align 8 dereferenceable(24) %21, ptr noundef nonnull align 8 dereferenceable(24) %22)
          to label %.noexc10 unwind label %48

.noexc10:                                         ; preds = %.noexc
  %24 = getelementptr inbounds nuw i8, ptr %0, i64 208
  %25 = getelementptr inbounds nuw i8, ptr %1, i64 208
  %26 = invoke noundef nonnull align 8 dereferenceable(24) ptr @_ZNSt6vectorIiSaIiEEaSERKS1_(ptr noundef nonnull align 8 dereferenceable(24) %24, ptr noundef nonnull align 8 dereferenceable(24) %25)
          to label %.noexc11 unwind label %48

.noexc11:                                         ; preds = %.noexc10
  %27 = getelementptr inbounds nuw i8, ptr %0, i64 232
  %28 = getelementptr inbounds nuw i8, ptr %1, i64 232
  %29 = invoke noundef nonnull align 8 dereferenceable(24) ptr @_ZNSt6vectorIiSaIiEEaSERKS1_(ptr noundef nonnull align 8 dereferenceable(24) %27, ptr noundef nonnull align 8 dereferenceable(24) %28)
          to label %.noexc12 unwind label %48

.noexc12:                                         ; preds = %.noexc11
  %30 = getelementptr inbounds nuw i8, ptr %0, i64 256
  %31 = getelementptr inbounds nuw i8, ptr %1, i64 256
  %32 = invoke noundef nonnull align 8 dereferenceable(24) ptr @_ZNSt6vectorISt5arrayIiLm4EESaIS1_EEaSERKS3_(ptr noundef nonnull align 8 dereferenceable(24) %30, ptr noundef nonnull align 8 dereferenceable(24) %31)
          to label %.noexc13 unwind label %48

.noexc13:                                         ; preds = %.noexc12
  %33 = getelementptr inbounds nuw i8, ptr %0, i64 280
  %34 = getelementptr inbounds nuw i8, ptr %1, i64 280
  %35 = invoke noundef nonnull align 8 dereferenceable(24) ptr @_ZNSt6vectorISt5arrayIiLm4EESaIS1_EEaSERKS3_(ptr noundef nonnull align 8 dereferenceable(24) %33, ptr noundef nonnull align 8 dereferenceable(24) %34)
          to label %_ZN8t_donorsaSERKS_.exit unwind label %48

_ZN8t_donorsaSERKS_.exit:                         ; preds = %.noexc13
  %36 = getelementptr inbounds nuw i8, ptr %1, i64 304
  %37 = getelementptr inbounds nuw i8, ptr %0, i64 304
  %38 = invoke noundef nonnull align 8 dereferenceable(24) ptr @_ZNSt6vectorIiSaIiEEaSERKS1_(ptr noundef nonnull align 8 dereferenceable(72) %37, ptr noundef nonnull align 8 dereferenceable(72) %36)
          to label %.noexc15 unwind label %48

.noexc15:                                         ; preds = %_ZN8t_donorsaSERKS_.exit
  %39 = getelementptr inbounds nuw i8, ptr %0, i64 328
  %40 = getelementptr inbounds nuw i8, ptr %1, i64 328
  %41 = invoke noundef nonnull align 8 dereferenceable(24) ptr @_ZNSt6vectorIiSaIiEEaSERKS1_(ptr noundef nonnull align 8 dereferenceable(24) %39, ptr noundef nonnull align 8 dereferenceable(24) %40)
          to label %.noexc16 unwind label %48

.noexc16:                                         ; preds = %.noexc15
  %42 = getelementptr inbounds nuw i8, ptr %0, i64 352
  %43 = getelementptr inbounds nuw i8, ptr %1, i64 352
  %44 = invoke noundef nonnull align 8 dereferenceable(24) ptr @_ZNSt6vectorIiSaIiEEaSERKS1_(ptr noundef nonnull align 8 dereferenceable(24) %42, ptr noundef nonnull align 8 dereferenceable(24) %43)
          to label %_ZN11t_acceptorsaSERKS_.exit unwind label %48

_ZN11t_acceptorsaSERKS_.exit:                     ; preds = %.noexc16
  %45 = getelementptr inbounds nuw i8, ptr %1, i64 384
  %46 = load ptr, ptr %45, align 8, !tbaa !54
  %47 = getelementptr inbounds nuw i8, ptr %0, i64 384
  store ptr %46, ptr %47, align 8, !tbaa !54
  ret void

48:                                               ; preds = %.noexc16, %.noexc15, %_ZN8t_donorsaSERKS_.exit, %.noexc13, %.noexc12, %.noexc11, %.noexc10, %.noexc, %17, %2
  %49 = landingpad { ptr, i32 }
          cleanup
  tail call void @_ZN16HydrogenBondDataD2Ev(ptr noundef nonnull align 8 dereferenceable(392) %0) #25
  resume { ptr, i32 } %49
}